target datalayout = "e-m:e-p270:32:32-p271:32:32-p272:64:64-i64:64-i128:128-f80:128-n8:16:32:64-S128"
target triple = "x86_64-pc-linux-gnu"

@H5P_CLS_LINK_ACCESS_ID_g = external global i64, align 8
@H5_libinit_g = external global i8, align 1
@H5_libterm_g = external global i8, align 1
@.str.1 = private unnamed_addr constant [101 x i8] c"generated/home/dtcxzyw/WorkSpace/Projects/compilers/llvm-opt-benchmark/bench/hdf5/hdf5/src/H5Plapl.c\00", align 1
@H5E_FUNC_g = external global i64, align 8
@H5E_CANTINIT_g = external global i64, align 8
@.str.2 = private unnamed_addr constant [30 x i8] c"library initialization failed\00", align 1
@H5E_CANTSET_g = external global i64, align 8
@.str.3 = private unnamed_addr constant [22 x i8] c"can't set API context\00", align 1
@H5E_ID_g = external global i64, align 8
@H5E_BADID_g = external global i64, align 8
@.str.5 = private unnamed_addr constant [25 x i8] c"can't find object for ID\00", align 1
@H5E_PLIST_g = external global i64, align 8
@H5E_CANTGET_g = external global i64, align 8
@.str.14 = private unnamed_addr constant [19 x i8] c"external link fapl\00", align 1
@__func__.H5Pget_elink_fapl = private unnamed_addr constant [18 x i8] c"H5Pget_elink_fapl\00", align 1
@.str.16 = private unnamed_addr constant [25 x i8] c"can't get fapl for links\00", align 1

; Function Attrs: nounwind uwtable
define i64 @H5Pget_elink_fapl(i64 noundef %0) #0 {
  %2 = alloca i64, align 8
  %3 = alloca ptr, align 8
  %4 = alloca i64, align 8
  %5 = alloca i8, align 1
  %6 = alloca i8, align 1
  store i64 %0, ptr %2, align 8
  store i8 0, ptr %5, align 1
  store i8 0, ptr %6, align 1
  %7 = load i8, ptr @H5_libinit_g, align 1
  %8 = trunc i8 %7 to i1
  br i1 %8, label %13, label %9

9:                                                ; preds = %1
  %10 = load i8, ptr @H5_libterm_g, align 1
  %11 = trunc i8 %10 to i1
  %12 = xor i1 %11, true
  br label %13

13:                                               ; preds = %9, %1
  %14 = phi i1 [ false, %1 ], [ %12, %9 ]
  %15 = xor i1 %14, true
  %16 = xor i1 %15, true
  %17 = zext i1 %16 to i32
  %18 = sext i32 %17 to i64
  %19 = icmp ne i64 %18, 0
  br i1 %19, label %20, label %44

20:                                               ; preds = %13
  %21 = call i32 @H5_init_library()
  %22 = icmp slt i32 %21, 0
  %23 = xor i1 %22, true
  %24 = xor i1 %23, true
  %25 = zext i1 %24 to i32
  %26 = sext i32 %25 to i64
  %27 = icmp ne i64 %26, 0
  br i1 %27, label %28, label %43

28:                                               ; preds = %20
  br label %29

29:                                               ; preds = %28
  br label %30

30:                                               ; preds = %29
  br label %31

31:                                               ; preds = %30
  %32 = load i64, ptr @H5E_FUNC_g, align 8
  %33 = load i64, ptr @H5E_CANTINIT_g, align 8
  %34 = call i32 (ptr, ptr, i32, i64, i64, ptr, ...) @H5E_printf_stack(ptr noundef @.str.1, ptr noundef @__func__.H5Pget_elink_fapl, i32 noundef 1038, i64 noundef %32, i64 noundef %33, ptr noundef @.str.2)
  br label %35

35:                                               ; preds = %31
  store i8 1, ptr %6, align 1
  %36 = load i8, ptr %6, align 1
  %37 = trunc i8 %36 to i1
  %38 = zext i1 %37 to i8
  store i8 %38, ptr %6, align 1
  br label %39

39:                                               ; preds = %35
  br label %40

40:                                               ; preds = %39
  store i64 -1, ptr %4, align 8
  br label %109

41:                                               ; No predecessors!
  br label %42

42:                                               ; preds = %41
  br label %43

43:                                               ; preds = %42, %20
  br label %44

44:                                               ; preds = %43, %13
  %45 = call i32 @H5CX_push()
  %46 = icmp slt i32 %45, 0
  %47 = xor i1 %46, true
  %48 = xor i1 %47, true
  %49 = zext i1 %48 to i32
  %50 = sext i32 %49 to i64
  %51 = icmp ne i64 %50, 0
  br i1 %51, label %52, label %67

52:                                               ; preds = %44
  br label %53

53:                                               ; preds = %52
  br label %54

54:                                               ; preds = %53
  br label %55

55:                                               ; preds = %54
  %56 = load i64, ptr @H5E_FUNC_g, align 8
  %57 = load i64, ptr @H5E_CANTSET_g, align 8
  %58 = call i32 (ptr, ptr, i32, i64, i64, ptr, ...) @H5E_printf_stack(ptr noundef @.str.1, ptr noundef @__func__.H5Pget_elink_fapl, i32 noundef 1038, i64 noundef %56, i64 noundef %57, ptr noundef @.str.3)
  br label %59

59:                                               ; preds = %55
  store i8 1, ptr %6, align 1
  %60 = load i8, ptr %6, align 1
  %61 = trunc i8 %60 to i1
  %62 = zext i1 %61 to i8
  store i8 %62, ptr %6, align 1
  br label %63

63:                                               ; preds = %59
  br label %64

64:                                               ; preds = %63
  store i64 -1, ptr %4, align 8
  br label %109

65:                                               ; No predecessors!
  br label %66

66:                                               ; preds = %65
  br label %68

67:                                               ; preds = %44
  store i8 1, ptr %5, align 1
  br label %68

68:                                               ; preds = %67, %66
  %69 = call i32 @H5E_clear_stack()
  %70 = load i64, ptr %2, align 8
  %71 = load i64, ptr @H5P_CLS_LINK_ACCESS_ID_g, align 8
  %72 = call ptr @H5P_object_verify(i64 noundef %70, i64 noundef %71)
  store ptr %72, ptr %3, align 8
  %73 = icmp eq ptr null, %72
  br i1 %73, label %74, label %89

74:                                               ; preds = %68
  br label %75

75:                                               ; preds = %74
  br label %76

76:                                               ; preds = %75
  br label %77

77:                                               ; preds = %76
  %78 = load i64, ptr @H5E_ID_g, align 8
  %79 = load i64, ptr @H5E_BADID_g, align 8
  %80 = call i32 (ptr, ptr, i32, i64, i64, ptr, ...) @H5E_printf_stack(ptr noundef @.str.1, ptr noundef @__func__.H5Pget_elink_fapl, i32 noundef 1042, i64 noundef %78, i64 noundef %79, ptr noundef @.str.5)
  br label %81

81:                                               ; preds = %77
  store i8 1, ptr %6, align 1
  %82 = load i8, ptr %6, align 1
  %83 = trunc i8 %82 to i1
  %84 = zext i1 %83 to i8
  store i8 %84, ptr %6, align 1
  br label %85

85:                                               ; preds = %81
  br label %86

86:                                               ; preds = %85
  store i64 -1, ptr %4, align 8
  br label %109

87:                                               ; No predecessors!
  br label %88

88:                                               ; preds = %87
  br label %89

89:                                               ; preds = %88, %68
  %90 = load ptr, ptr %3, align 8
  %91 = call i32 @H5P_get(ptr noundef %90, ptr noundef @.str.14, ptr noundef %4)
  %92 = icmp slt i32 %91, 0
  br i1 %92, label %93, label %108

93:                                               ; preds = %89
  br label %94

94:                                               ; preds = %93
  br label %95

95:                                               ; preds = %94
  br label %96

96:                                               ; preds = %95
  %97 = load i64, ptr @H5E_PLIST_g, align 8
  %98 = load i64, ptr @H5E_CANTGET_g, align 8
  %99 = call i32 (ptr, ptr, i32, i64, i64, ptr, ...) @H5E_printf_stack(ptr noundef @.str.1, ptr noundef @__func__.H5Pget_elink_fapl, i32 noundef 1045, i64 noundef %97, i64 noundef %98, ptr noundef @.str.16)
  br label %100

100:                                              ; preds = %96
  store i8 1, ptr %6, align 1
  %101 = load i8, ptr %6, align 1
  %102 = trunc i8 %101 to i1
  %103 = zext i1 %102 to i8
  store i8 %103, ptr %6, align 1
  br label %104

104:                                              ; preds = %100
  br label %105

105:                                              ; preds = %104
  store i64 -1, ptr %4, align 8
  br label %109

106:                                              ; No predecessors!
  br label %107

107:                                              ; preds = %106
  br label %108

108:                                              ; preds = %107, %89
  br label %109

109:                                              ; preds = %108, %105, %86, %64, %40
  %110 = load i8, ptr %5, align 1
  %111 = trunc i8 %110 to i1
  %112 = xor i1 %111, true
  %113 = xor i1 %112, true
  %114 = zext i1 %113 to i32
  %115 = sext i32 %114 to i64
  %116 = icmp ne i64 %115, 0
  br i1 %116, label %117, label %119

117:                                              ; preds = %109
  %118 = call i32 @H5CX_pop(i1 noundef zeroext true)
  store i8 0, ptr %5, align 1
  br label %119

119:                                              ; preds = %117, %109
  %120 = load i8, ptr %6, align 1
  %121 = trunc i8 %120 to i1
  %122 = xor i1 %121, true
  %123 = xor i1 %122, true
  %124 = zext i1 %123 to i32
  %125 = sext i32 %124 to i64
  %126 = icmp ne i64 %125, 0
  br i1 %126, label %127, label %129

127:                                              ; preds = %119
  %128 = call i32 @H5E_dump_api_stack()
  br label %129

129:                                              ; preds = %127, %119
  %130 = load i64, ptr %4, align 8
  ret i64 %130
}